target datalayout = "e-m:e-p270:32:32-p271:32:32-p272:64:64-i64:64-i128:128-f80:128-n8:16:32:64-S128"
target triple = "x86_64-pc-linux-gnu"

@.str.140 = private unnamed_addr constant [11 x i8] c"incomplete\00", align 1
@.str.141 = private unnamed_addr constant [7 x i8] c"state=\00", align 1
@.str.142 = private unnamed_addr constant [12 x i8] c"specialexit\00", align 1
@.str.143 = private unnamed_addr constant [3 x i8] c"se\00", align 1

; Function Attrs: nounwind uwtable
define dso_local i32 @parse_requeue_flags(ptr noundef %0, ptr noundef %1) #0 {
  %3 = alloca i32, align 4
  %4 = alloca ptr, align 8
  %5 = alloca ptr, align 8
  %6 = alloca i32, align 4
  %7 = alloca i32, align 4
  store ptr %0, ptr %4, align 8
  store ptr %1, ptr %5, align 8
  call void @llvm.lifetime.start.p0(i64 4, ptr %6) #8
  %8 = load ptr, ptr %4, align 8
  %9 = call i64 @strlen(ptr noundef %8) #10
  %10 = trunc i64 %9 to i32
  store i32 %10, ptr %6, align 4
  %11 = load ptr, ptr %4, align 8
  %12 = load i32, ptr %6, align 4
  %13 = sext i32 %12 to i64
  %14 = call i32 @xstrncasecmp(ptr noundef %11, ptr noundef @.str.140, i64 noundef %13)
  %15 = icmp ne i32 %14, 0
  br i1 %15, label %20, label %16

16:                                               ; preds = %2
  %17 = load ptr, ptr %5, align 8
  %18 = load i32, ptr %17, align 4
  %19 = or i32 %18, 1
  store i32 %19, ptr %17, align 4
  store i32 0, ptr %3, align 4
  store i32 1, ptr %7, align 4
  br label %42

20:                                               ; preds = %2
  %21 = load ptr, ptr %4, align 8
  %22 = call i32 @xstrncasecmp(ptr noundef %21, ptr noundef @.str.141, i64 noundef 6)
  %23 = icmp ne i32 %22, 0
  br i1 %23, label %24, label %25

24:                                               ; preds = %20
  store i32 -1, ptr %3, align 4
  store i32 1, ptr %7, align 4
  br label %42

25:                                               ; preds = %20
  %26 = load ptr, ptr %4, align 8
  %27 = getelementptr inbounds i8, ptr %26, i64 6
  store ptr %27, ptr %4, align 8
  %28 = load ptr, ptr %4, align 8
  %29 = call i32 @xstrncasecmp(ptr noundef %28, ptr noundef @.str.142, i64 noundef 11)
  %30 = icmp ne i32 %29, 0
  br i1 %30, label %31, label %35

31:                                               ; preds = %25
  %32 = load ptr, ptr %4, align 8
  %33 = call i32 @xstrncasecmp(ptr noundef %32, ptr noundef @.str.143, i64 noundef 2)
  %34 = icmp ne i32 %33, 0
  br i1 %34, label %41, label %35

35:                                               ; preds = %31, %25
  %36 = load ptr, ptr %5, align 8
  %37 = load i32, ptr %36, align 4
  %38 = zext i32 %37 to i64
  %39 = or i64 %38, 4096
  %40 = trunc i64 %39 to i32
  store i32 %40, ptr %36, align 4
  store i32 0, ptr %3, align 4
  store i32 1, ptr %7, align 4
  br label %42

41:                                               ; preds = %31
  store i32 -1, ptr %3, align 4
  store i32 1, ptr %7, align 4
  br label %42

42:                                               ; preds = %41, %35, %24, %16
  call void @llvm.lifetime.end.p0(i64 4, ptr %6) #8
  %43 = load i32, ptr %3, align 4
  ret i32 %43
}