; Function Attrs: nounwind uwtable
define dso_local range(i32 -1, 1) i32 @parse_requeue_flags(ptr noundef %0, ptr noundef captures(none) %1) local_unnamed_addr #0 {
  %3 = tail call i64 @strlen(ptr noundef nonnull dereferenceable(1) %0) #16
  %sext = shl i64 %3, 32
  %4 = ashr exact i64 %sext, 32
  %5 = tail call i32 @xstrncasecmp(ptr noundef nonnull %0, ptr noundef nonnull @.str.140, i64 noundef %4) #13
  %.not = icmp eq i32 %5, 0
  br i1 %.not, label %.sink.split, label %6

6:                                                ; preds = %2
  %7 = tail call i32 @xstrncasecmp(ptr noundef nonnull %0, ptr noundef nonnull @.str.141, i64 noundef 6) #13
  %.not9 = icmp eq i32 %7, 0
  br i1 %.not9, label %8, label %15

8:                                                ; preds = %6
  %9 = getelementptr inbounds nuw i8, ptr %0, i64 6
  %10 = tail call i32 @xstrncasecmp(ptr noundef nonnull %9, ptr noundef nonnull @.str.142, i64 noundef 11) #13
  %.not10 = icmp eq i32 %10, 0
  br i1 %.not10, label %.sink.split, label %11

11:                                               ; preds = %8
  %12 = tail call i32 @xstrncasecmp(ptr noundef nonnull %9, ptr noundef nonnull @.str.143, i64 noundef 2) #13
  %.not11 = icmp eq i32 %12, 0
  br i1 %.not11, label %.sink.split, label %15

.sink.split:                                      ; preds = %8, %11, %2
  %.sink13 = phi i32 [ 1, %2 ], [ 4096, %11 ], [ 4096, %8 ]
  %13 = load i32, ptr %1, align 4
  %14 = or i32 %13, %.sink13
  store i32 %14, ptr %1, align 4
  br label %15

15:                                               ; preds = %.sink.split, %11, %6
  %.0 = phi i32 [ -1, %6 ], [ -1, %11 ], [ 0, %.sink.split ]
  ret i32 %.0
}